	.file	"main.c"
	.text
Ltext0:
	.section .rdata,"dr"
	.align 4
LC1:
	.ascii "time = (%8x, %8ld, %8ld, %8lf)\12\0"
	.text
	.p2align 4,,15
	.globl	_test1
	.def	_test1;	.scl	2;	.type	32;	.endef
_test1:
LFB32:
	.file 1 "main.c"
	.loc 1 21 0
	.cfi_startproc
	pushl	%esi
	.cfi_def_cfa_offset 8
	.cfi_offset 6, -8
	pushl	%ebx
	.cfi_def_cfa_offset 12
	.cfi_offset 3, -12
	subl	$68, %esp
	.cfi_def_cfa_offset 80
	.loc 1 26 0
	movl	$0, 56(%esp)
	.loc 1 27 0
	movl	$-1, 60(%esp)
	.loc 1 28 0
	call	_clock
LVL0:
	movl	%eax, %ebx
LVL1:
	.loc 1 32 0
	movl	60(%esp), %eax
LVL2:
	movl	$-858993459, %ecx
	testl	%eax, %eax
	je	L5
	.p2align 4,,10
L15:
	.loc 1 37 0
	movl	60(%esp), %eax
	testl	%eax, %eax
	je	L3
	.loc 1 37 0 is_stmt 0 discriminator 1
	movl	60(%esp), %esi
	movl	%esi, %eax
	mull	%ecx
	shrl	$3, %edx
	leal	(%edx,%edx,4), %eax
	addl	%eax, %eax
	cmpl	%eax, %esi
	je	L19
L3:
	.loc 1 42 0 is_stmt 1
	movl	60(%esp), %eax
	testl	%eax, %eax
	je	L4
L19:
	.loc 1 43 0
	movl	60(%esp), %eax
	subl	$1, %eax
	movl	%eax, 60(%esp)
L4:
	.loc 1 46 0
	movl	56(%esp), %eax
	addl	$1, %eax
	movl	%eax, 56(%esp)
	.loc 1 32 0
	movl	60(%esp), %eax
	testl	%eax, %eax
	jne	L15
L5:
	.loc 1 48 0
	call	_clock
LVL3:
	.loc 1 52 0
	movl	%eax, %edx
	.loc 1 49 0
	movl	_buf_size, %ecx
	movl	56(%esp), %esi
	.loc 1 52 0
	subl	%ebx, %edx
	.loc 1 49 0
	movl	%eax, 20(%esp)
	movl	$4096, %eax
LVL4:
	.loc 1 52 0
	movl	%edx, 44(%esp)
	.loc 1 49 0
	movl	%ebx, 16(%esp)
	.loc 1 52 0
	fildl	44(%esp)
	.loc 1 49 0
	subl	%ecx, %eax
	addl	$_buffer, %ecx
	movl	%esi, 12(%esp)
	movl	$LC1, 8(%esp)
	fdivs	LC0
	movl	%eax, 4(%esp)
	movl	%ecx, (%esp)
	fstpl	24(%esp)
	call	_snprintf
LVL5:
	movl	%eax, _str_size
	.loc 1 53 0
	addl	%eax, _buf_size
	.loc 1 54 0
	addl	$68, %esp
	.cfi_def_cfa_offset 12
	popl	%ebx
	.cfi_restore 3
	.cfi_def_cfa_offset 8
LVL6:
	popl	%esi
	.cfi_restore 6
	.cfi_def_cfa_offset 4
	ret
	.cfi_endproc
LFE32:
	.p2align 4,,15
	.globl	_test2
	.def	_test2;	.scl	2;	.type	32;	.endef
_test2:
LFB33:
	.loc 1 57 0
	.cfi_startproc
	pushl	%edi
	.cfi_def_cfa_offset 8
	.cfi_offset 7, -8
	pushl	%esi
	.cfi_def_cfa_offset 12
	.cfi_offset 6, -12
LBB5:
	.loc 1 70 0
	movl	$-858993459, %esi
LBE5:
	.loc 1 57 0
	pushl	%ebx
	.cfi_def_cfa_offset 16
	.cfi_offset 3, -16
	.loc 1 63 0
	movl	$268435455, %ebx
	.loc 1 57 0
	subl	$64, %esp
	.cfi_def_cfa_offset 80
	.loc 1 62 0
	movl	$0, 56(%esp)
	.loc 1 63 0
	call	_clock
LVL7:
	movl	%eax, %edi
LVL8:
	.p2align 4,,10
L25:
LBB6:
	.loc 1 65 0
	call	_rand
LVL9:
	movl	%eax, 60(%esp)
	.loc 1 67 0
	movl	60(%esp), %eax
	testl	%eax, %eax
	je	L31
	.loc 1 70 0
	movl	60(%esp), %ecx
	movl	%ecx, %eax
	mull	%esi
	shrl	$3, %edx
	leal	(%edx,%edx,4), %eax
	addl	%eax, %eax
	cmpl	%eax, %ecx
	je	L31
	.loc 1 73 0
	movl	60(%esp), %eax
	testl	%eax, %eax
	je	L23
L31:
	.loc 1 74 0
	movl	56(%esp), %eax
	addl	$1, %eax
	movl	%eax, 56(%esp)
L23:
LVL10:
	.loc 1 64 0 discriminator 2
	subl	$1, %ebx
LVL11:
	jne	L25
LBE6:
	.loc 1 77 0
	call	_clock
LVL12:
	.loc 1 81 0
	movl	%eax, %edx
	.loc 1 78 0
	movl	_buf_size, %ecx
	movl	56(%esp), %ebx
LVL13:
	.loc 1 81 0
	subl	%edi, %edx
	.loc 1 78 0
	movl	%eax, 20(%esp)
	movl	$4096, %eax
LVL14:
	.loc 1 81 0
	movl	%edx, 44(%esp)
	.loc 1 78 0
	movl	%edi, 16(%esp)
	.loc 1 81 0
	fildl	44(%esp)
	.loc 1 78 0
	subl	%ecx, %eax
	addl	$_buffer, %ecx
	movl	%ebx, 12(%esp)
	movl	$LC1, 8(%esp)
	fdivs	LC0
	movl	%eax, 4(%esp)
	movl	%ecx, (%esp)
	fstpl	24(%esp)
	call	_snprintf
LVL15:
	movl	%eax, _str_size
	.loc 1 82 0
	addl	%eax, _buf_size
	.loc 1 83 0
	addl	$64, %esp
	.cfi_def_cfa_offset 16
	popl	%ebx
	.cfi_restore 3
	.cfi_def_cfa_offset 12
	popl	%esi
	.cfi_restore 6
	.cfi_def_cfa_offset 8
	popl	%edi
	.cfi_restore 7
	.cfi_def_cfa_offset 4
LVL16:
	ret
	.cfi_endproc
LFE33:
	.def	___main;	.scl	2;	.type	32;	.endef
	.section	.text.startup,"x"
	.p2align 4,,15
	.globl	_main
	.def	_main;	.scl	2;	.type	32;	.endef
_main:
LFB34:
	.loc 1 86 0
	.cfi_startproc
LVL17:
	pushl	%ebp
	.cfi_def_cfa_offset 8
	.cfi_offset 5, -8
	movl	%esp, %ebp
	.cfi_def_cfa_register 5
	pushl	%edi
	pushl	%esi
	pushl	%ebx
	andl	$-16, %esp
	subl	$16, %esp
	.cfi_offset 7, -12
	.cfi_offset 6, -16
	.cfi_offset 3, -20
	.loc 1 86 0
	call	___main
LVL18:
	.loc 1 87 0
	movl	$0, (%esp)
	call	_time
LVL19:
	movl	%eax, (%esp)
	call	_srand
LVL20:
	.loc 1 90 0
	call	_test2
LVL21:
LBB7:
	.loc 1 96 0
	movl	_buf_size, %eax
	testl	%eax, %eax
	je	L39
	movl	__imp___iob, %edi
	.loc 1 96 0 is_stmt 0 discriminator 3
	xorl	%ebx, %ebx
LBB8:
LBB9:
	.file 2 "c:/mingw/include/stdio.h"
	.loc 2 705 0 is_stmt 1 discriminator 3
	leal	32(%edi), %esi
	jmp	L36
LVL22:
	.p2align 4,,10
L41:
	.loc 2 704 0
	movl	32(%edi), %eax
LBE9:
LBE8:
	.loc 1 96 0
	addl	$1, %ebx
LVL23:
LBB13:
LBB10:
	.loc 2 704 0
	leal	1(%eax), %ecx
	movl	%ecx, 32(%edi)
	movb	%dl, (%eax)
LVL24:
LBE10:
LBE13:
	.loc 1 96 0
	cmpl	_buf_size, %ebx
	jnb	L39
LVL25:
L36:
	.loc 1 97 0 discriminator 3
	movsbl	_buffer(%ebx), %edx
LVL26:
LBB14:
LBB11:
	.loc 2 705 0 discriminator 3
	subl	$1, 36(%edi)
	jns	L41
	.loc 2 705 0 is_stmt 0
	movl	%esi, 4(%esp)
LBE11:
LBE14:
	.loc 1 97 0 is_stmt 1
	movl	%edx, (%esp)
	.loc 1 96 0
	addl	$1, %ebx
LVL27:
LBB15:
LBB12:
	.loc 2 705 0
	call	__flsbuf
LVL28:
LBE12:
LBE15:
	.loc 1 96 0
	cmpl	_buf_size, %ebx
	jb	L36
LVL29:
L39:
LBE7:
	.loc 1 100 0
	leal	-12(%ebp), %esp
	xorl	%eax, %eax
	popl	%ebx
	.cfi_restore 3
	popl	%esi
	.cfi_restore 6
	popl	%edi
	.cfi_restore 7
	popl	%ebp
	.cfi_restore 5
	.cfi_def_cfa 4, 4
	ret
	.cfi_endproc
LFE34:
.lcomm _buffer,4096,32
	.globl	_buf_size
	.bss
	.align 4
_buf_size:
	.space 4
	.comm	_str_size, 4, 2
	.section .rdata,"dr"
	.align 4
LC0:
	.long	1148846080
	.text
Letext0:
	.file 3 "c:/Users/s9805/OneDrive/Workspace/algo4linux/include/types.h"
	.file 4 "c:/mingw/lib/gcc/mingw32/6.3.0/include/stddef.h"
	.file 5 "c:/mingw/include/stdlib.h"
	.file 6 "c:/mingw/include/time.h"